target datalayout = "e-m:e-p270:32:32-p271:32:32-p272:64:64-i64:64-i128:128-f80:128-n8:16:32:64-S128"
target triple = "x86_64-pc-linux-gnu"

; Function Attrs: nounwind uwtable
define internal void @highbd_dc_top_predictor(ptr noundef %0, i64 noundef %1, i32 noundef %2, i32 noundef %3, ptr noundef %4, ptr noundef %5, i32 noundef %6) #0 {
  %8 = alloca ptr, align 8
  %9 = alloca i64, align 8
  %10 = alloca i32, align 4
  %11 = alloca i32, align 4
  %12 = alloca ptr, align 8
  %13 = alloca ptr, align 8
  %14 = alloca i32, align 4
  %15 = alloca i32, align 4
  %16 = alloca i32, align 4
  %17 = alloca i32, align 4
  %18 = alloca i32, align 4
  store ptr %0, ptr %8, align 8
  store i64 %1, ptr %9, align 8
  store i32 %2, ptr %10, align 4
  store i32 %3, ptr %11, align 4
  store ptr %4, ptr %12, align 8
  store ptr %5, ptr %13, align 8
  store i32 %6, ptr %14, align 4
  store i32 0, ptr %18, align 4
  store i32 0, ptr %15, align 4
  br label %19

19:                                               ; preds = %32, %7
  %20 = load i32, ptr %15, align 4
  %21 = load i32, ptr %10, align 4
  %22 = icmp slt i32 %20, %21
  br i1 %22, label %23, label %35

23:                                               ; preds = %19
  %24 = load ptr, ptr %12, align 8
  %25 = load i32, ptr %15, align 4
  %26 = sext i32 %25 to i64
  %27 = getelementptr inbounds i16, ptr %24, i64 %26
  %28 = load i16, ptr %27, align 2
  %29 = zext i16 %28 to i32
  %30 = load i32, ptr %18, align 4
  %31 = add nsw i32 %30, %29
  store i32 %31, ptr %18, align 4
  br label %32

32:                                               ; preds = %23
  %33 = load i32, ptr %15, align 4
  %34 = add nsw i32 %33, 1
  store i32 %34, ptr %15, align 4
  br label %19, !llvm.loop !45

35:                                               ; preds = %19
  %36 = load i32, ptr %18, align 4
  %37 = load i32, ptr %10, align 4
  %38 = ashr i32 %37, 1
  %39 = add nsw i32 %36, %38
  %40 = load i32, ptr %10, align 4
  %41 = sdiv i32 %39, %40
  store i32 %41, ptr %17, align 4
  store i32 0, ptr %16, align 4
  br label %42

42:                                               ; preds = %55, %35
  %43 = load i32, ptr %16, align 4
  %44 = load i32, ptr %11, align 4
  %45 = icmp slt i32 %43, %44
  br i1 %45, label %46, label %58

46:                                               ; preds = %42
  %47 = load ptr, ptr %8, align 8
  %48 = load i32, ptr %17, align 4
  %49 = load i32, ptr %10, align 4
  %50 = sext i32 %49 to i64
  %51 = call ptr @aom_memset16(ptr noundef %47, i32 noundef %48, i64 noundef %50)
  %52 = load i64, ptr %9, align 8
  %53 = load ptr, ptr %8, align 8
  %54 = getelementptr inbounds i16, ptr %53, i64 %52
  store ptr %54, ptr %8, align 8
  br label %55

55:                                               ; preds = %46
  %56 = load i32, ptr %16, align 4
  %57 = add nsw i32 %56, 1
  store i32 %57, ptr %16, align 4
  br label %42, !llvm.loop !46

58:                                               ; preds = %42
  ret void
}

; Function Attrs: nounwind uwtable
define hidden void @aom_highbd_dc_top_predictor_4x16_c(ptr noundef %0, i64 noundef %1, ptr noundef %2, ptr noundef %3, i32 noundef %4) #0 {
  %6 = alloca ptr, align 8
  %7 = alloca i64, align 8
  %8 = alloca ptr, align 8
  %9 = alloca ptr, align 8
  %10 = alloca i32, align 4
  store ptr %0, ptr %6, align 8
  store i64 %1, ptr %7, align 8
  store ptr %2, ptr %8, align 8
  store ptr %3, ptr %9, align 8
  store i32 %4, ptr %10, align 4
  %11 = load ptr, ptr %6, align 8
  %12 = load i64, ptr %7, align 8
  %13 = load ptr, ptr %8, align 8
  %14 = load ptr, ptr %9, align 8
  %15 = load i32, ptr %10, align 4
  call void @highbd_dc_top_predictor(ptr noundef %11, i64 noundef %12, i32 noundef 4, i32 noundef 16, ptr noundef %13, ptr noundef %14, i32 noundef %15)
  ret void
}